target datalayout = "e-m:e-p270:32:32-p271:32:32-p272:64:64-i64:64-i128:128-f80:128-n8:16:32:64-S128"
target triple = "x86_64-pc-linux-gnu"

%struct.lzma_index_coder = type { i32, ptr, %struct.lzma_index_iter, i64, i32 }
%struct.lzma_index_iter = type { %struct.anon, %struct.anon.0, [6 x %union.anon] }
%struct.anon = type { ptr, ptr, ptr, ptr, i64, i64, i64, i64, i64, i64, i64, i64, i64, i64, i64 }
%struct.anon.0 = type { i64, i64, i64, i64, i64, i64, i64, i64, i64, i64, i64, i64, i64, ptr, ptr, ptr, ptr }
%union.anon = type { ptr }

; Function Attrs: nounwind uwtable
define internal void @index_encoder_reset(ptr noundef %0, ptr noundef %1) #0 {
  %3 = alloca ptr, align 8
  %4 = alloca ptr, align 8
  store ptr %0, ptr %3, align 8, !tbaa !9
  store ptr %1, ptr %4, align 8, !tbaa !10
  %5 = load ptr, ptr %3, align 8, !tbaa !9
  %6 = getelementptr inbounds nuw %struct.lzma_index_coder, ptr %5, i32 0, i32 2
  %7 = load ptr, ptr %4, align 8, !tbaa !10
  call void @lzma_index_iter_init(ptr noundef %6, ptr noundef %7) #5
  %8 = load ptr, ptr %3, align 8, !tbaa !9
  %9 = getelementptr inbounds nuw %struct.lzma_index_coder, ptr %8, i32 0, i32 0
  store i32 0, ptr %9, align 8, !tbaa !25
  %10 = load ptr, ptr %4, align 8, !tbaa !10
  %11 = load ptr, ptr %3, align 8, !tbaa !9
  %12 = getelementptr inbounds nuw %struct.lzma_index_coder, ptr %11, i32 0, i32 1
  store ptr %10, ptr %12, align 8, !tbaa !31
  %13 = load ptr, ptr %3, align 8, !tbaa !9
  %14 = getelementptr inbounds nuw %struct.lzma_index_coder, ptr %13, i32 0, i32 3
  store i64 0, ptr %14, align 8, !tbaa !32
  %15 = load ptr, ptr %3, align 8, !tbaa !9
  %16 = getelementptr inbounds nuw %struct.lzma_index_coder, ptr %15, i32 0, i32 4
  store i32 0, ptr %16, align 8, !tbaa !35
  ret void
}

; Function Attrs: nounwind uwtable
define dso_local i32 @lzma_index_buffer_encode(ptr noundef %0, ptr noundef %1, ptr noundef %2, i64 noundef %3) #0 {
  %5 = alloca i32, align 4
  %6 = alloca ptr, align 8
  %7 = alloca ptr, align 8
  %8 = alloca ptr, align 8
  %9 = alloca i64, align 8
  %10 = alloca %struct.lzma_index_coder, align 8
  %11 = alloca i64, align 8
  %12 = alloca i32, align 4
  store ptr %0, ptr %6, align 8, !tbaa !10
  store ptr %1, ptr %7, align 8, !tbaa !18
  store ptr %2, ptr %8, align 8, !tbaa !20
  store i64 %3, ptr %9, align 8, !tbaa !22
  %13 = load ptr, ptr %6, align 8, !tbaa !10
  %14 = icmp eq ptr %13, null
  br i1 %14, label %26, label %15

15:                                               ; preds = %4
  %16 = load ptr, ptr %7, align 8, !tbaa !18
  %17 = icmp eq ptr %16, null
  br i1 %17, label %26, label %18

18:                                               ; preds = %15
  %19 = load ptr, ptr %8, align 8, !tbaa !20
  %20 = icmp eq ptr %19, null
  br i1 %20, label %26, label %21

21:                                               ; preds = %18
  %22 = load ptr, ptr %8, align 8, !tbaa !20
  %23 = load i64, ptr %22, align 8, !tbaa !22
  %24 = load i64, ptr %9, align 8, !tbaa !22
  %25 = icmp ugt i64 %23, %24
  br i1 %25, label %26, label %27

26:                                               ; preds = %21, %18, %15, %4
  store i32 11, ptr %5, align 4
  br label %52

27:                                               ; preds = %21
  %28 = load i64, ptr %9, align 8, !tbaa !22
  %29 = load ptr, ptr %8, align 8, !tbaa !20
  %30 = load i64, ptr %29, align 8, !tbaa !22
  %31 = sub i64 %28, %30
  %32 = load ptr, ptr %6, align 8, !tbaa !10
  %33 = call i64 @lzma_index_size(ptr noundef %32) #6
  %34 = icmp ult i64 %31, %33
  br i1 %34, label %35, label %36

35:                                               ; preds = %27
  store i32 10, ptr %5, align 4
  br label %52

36:                                               ; preds = %27
  call void @llvm.lifetime.start.p0(i64 336, ptr %10) #5
  %37 = load ptr, ptr %6, align 8, !tbaa !10
  call void @index_encoder_reset(ptr noundef %10, ptr noundef %37)
  call void @llvm.lifetime.start.p0(i64 8, ptr %11) #5
  %38 = load ptr, ptr %8, align 8, !tbaa !20
  %39 = load i64, ptr %38, align 8, !tbaa !22
  store i64 %39, ptr %11, align 8, !tbaa !22
  call void @llvm.lifetime.start.p0(i64 4, ptr %12) #5
  %40 = load ptr, ptr %7, align 8, !tbaa !18
  %41 = load ptr, ptr %8, align 8, !tbaa !20
  %42 = load i64, ptr %9, align 8, !tbaa !22
  %43 = call i32 @index_encode(ptr noundef %10, ptr noundef null, ptr noundef null, ptr noundef null, i64 noundef 0, ptr noundef %40, ptr noundef %41, i64 noundef %42, i32 noundef 0)
  store i32 %43, ptr %12, align 4, !tbaa !23
  %44 = load i32, ptr %12, align 4, !tbaa !23
  %45 = icmp eq i32 %44, 1
  br i1 %45, label %46, label %47

46:                                               ; preds = %36
  store i32 0, ptr %12, align 4, !tbaa !23
  br label %50

47:                                               ; preds = %36
  %48 = load i64, ptr %11, align 8, !tbaa !22
  %49 = load ptr, ptr %8, align 8, !tbaa !20
  store i64 %48, ptr %49, align 8, !tbaa !22
  store i32 11, ptr %12, align 4, !tbaa !23
  br label %50

50:                                               ; preds = %47, %46
  %51 = load i32, ptr %12, align 4, !tbaa !23
  store i32 %51, ptr %5, align 4
  call void @llvm.lifetime.end.p0(i64 4, ptr %12) #5
  call void @llvm.lifetime.end.p0(i64 8, ptr %11) #5
  call void @llvm.lifetime.end.p0(i64 336, ptr %10) #5
  br label %52

52:                                               ; preds = %50, %35, %26
  %53 = load i32, ptr %5, align 4
  ret i32 %53
}