; Function Attrs: nounwind uwtable
define dso_local range(i32 0, 12) i32 @lzma_index_buffer_encode(ptr noundef %0, ptr noundef %1, ptr noundef %2, i64 noundef %3) local_unnamed_addr #0 {
  %5 = alloca %struct.lzma_index_coder, align 8
  %6 = icmp eq ptr %0, null
  %7 = icmp eq ptr %1, null
  %or.cond = or i1 %6, %7
  %8 = icmp eq ptr %2, null
  %or.cond3 = or i1 %or.cond, %8
  br i1 %or.cond3, label %26, label %9

9:                                                ; preds = %4
  %10 = load i64, ptr %2, align 8, !tbaa !23
  %11 = icmp ugt i64 %10, %3
  br i1 %11, label %26, label %12

12:                                               ; preds = %9
  %13 = sub nuw i64 %3, %10
  %14 = tail call i64 @lzma_index_size(ptr noundef nonnull %0) #6
  %15 = icmp ult i64 %13, %14
  br i1 %15, label %26, label %16

16:                                               ; preds = %12
  call void @llvm.lifetime.start.p0(i64 336, ptr nonnull %5) #5
  %17 = getelementptr inbounds nuw i8, ptr %5, i64 16
  call void @lzma_index_iter_init(ptr noundef nonnull %17, ptr noundef nonnull %0) #5
  store i32 0, ptr %5, align 8, !tbaa !13
  %18 = getelementptr inbounds nuw i8, ptr %5, i64 8
  store ptr %0, ptr %18, align 8, !tbaa !20
  %19 = getelementptr inbounds nuw i8, ptr %5, i64 320
  store i64 0, ptr %19, align 8, !tbaa !21
  %20 = getelementptr inbounds nuw i8, ptr %5, i64 328
  store i32 0, ptr %20, align 8, !tbaa !22
  %21 = load i64, ptr %2, align 8, !tbaa !23
  %22 = call i32 @index_encode(ptr noundef nonnull %5, ptr poison, ptr poison, ptr poison, i64 poison, ptr noundef nonnull %1, ptr noundef nonnull %2, i64 noundef %3, i32 poison)
  %23 = icmp eq i32 %22, 1
  br i1 %23, label %25, label %24

24:                                               ; preds = %16
  store i64 %21, ptr %2, align 8, !tbaa !23
  br label %25

25:                                               ; preds = %16, %24
  %.0 = phi i32 [ 11, %24 ], [ 0, %16 ]
  call void @llvm.lifetime.end.p0(i64 336, ptr nonnull %5) #5
  br label %26

26:                                               ; preds = %12, %4, %9, %25
  %.020 = phi i32 [ %.0, %25 ], [ 11, %9 ], [ 11, %4 ], [ 10, %12 ]
  ret i32 %.020
}